; Function Attrs: null_pointer_is_valid sspstrong uwtable
define internal i32 @dissect_dmx(ptr noundef %0, ptr noundef %1, ptr noundef %2, ptr readnone captures(none) %3) #0 {
  %5 = getelementptr inbounds nuw i8, ptr %1, i64 8
  %6 = load ptr, ptr %5, align 8
  tail call void @col_set_str(ptr noundef %6, i32 noundef 35, ptr noundef nonnull @.str.2)
  %7 = load ptr, ptr %5, align 8
  tail call void @col_clear(ptr noundef %7, i32 noundef 25)
  %8 = tail call zeroext i8 @tvb_get_uint8(ptr noundef %0, i32 noundef 0)
  %9 = load i32, ptr @hf_dmx_start_code, align 4
  %10 = tail call ptr @proto_tree_add_item(ptr noundef %2, i32 noundef %9, ptr noundef %0, i32 noundef 0, i32 noundef 1, i32 noundef 0)
  %11 = tail call ptr @tvb_new_subset_remaining(ptr noundef %0, i32 noundef 1)
  %12 = load ptr, ptr @dmx_dissector_table, align 8
  %13 = zext i8 %8 to i32
  %14 = tail call i32 @dissector_try_uint_with_data(ptr noundef %12, i32 noundef %13, ptr noundef %0, ptr noundef %1, ptr noundef %2, i1 noundef zeroext true, ptr noundef null)
  %.not = icmp eq i32 %14, 0
  br i1 %.not, label %15, label %17

15:                                               ; preds = %4
  %16 = tail call i32 @call_data_dissector(ptr noundef %11, ptr noundef %1, ptr noundef %2)
  br label %17

17:                                               ; preds = %15, %4
  %18 = tail call i32 @tvb_captured_length(ptr noundef %0)
  ret i32 %18
}